; Function Attrs: mustprogress uwtable
define noundef zeroext i1 @_ZNK16FieldInformation7isValidEv(ptr nocapture noundef nonnull readonly align 8 dereferenceable(40) %0) local_unnamed_addr #0 align 2 personality ptr @__gxx_personality_v0 {
  %2 = alloca %class.QString, align 8
  %3 = getelementptr inbounds i8, ptr %0, i64 24
  %4 = load ptr, ptr %3, align 8
  %.not = icmp eq ptr %4, null
  br i1 %.not, label %_ZN7QStringD2Ev.exit, label %5

5:                                                ; preds = %1
  %6 = load ptr, ptr %4, align 8
  %.not4 = icmp eq ptr %6, null
  br i1 %.not4, label %_ZN7QStringD2Ev.exit, label %7

7:                                                ; preds = %5
  %8 = getelementptr inbounds i8, ptr %6, i64 40
  %9 = load ptr, ptr %8, align 8
  %.not5 = icmp eq ptr %9, null
  br i1 %.not5, label %12, label %10

10:                                               ; preds = %7
  %11 = load i8, ptr %9, align 1
  %.not6 = icmp eq i8 %11, 0
  br i1 %.not6, label %12, label %_ZN7QStringD2Ev.exit

12:                                               ; preds = %10, %7
  %13 = load ptr, ptr %6, align 8
  call void @llvm.lifetime.start.p0(i64 24, ptr nonnull %2)
  %.not.i.i = icmp eq ptr %13, null
  br i1 %.not.i.i, label %_ZN7QStringC2EPKc.exit, label %.split.i.i

.split.i.i:                                       ; preds = %12
  %14 = tail call noundef i64 @strlen(ptr noundef nonnull dereferenceable(1) %13) #15
  br label %_ZN7QStringC2EPKc.exit

_ZN7QStringC2EPKc.exit:                           ; preds = %12, %.split.i.i
  %.sink5.i.i = phi i64 [ %14, %.split.i.i ], [ 0, %12 ]
  call void @_ZN7QString8fromUtf8E14QByteArrayView(ptr dead_on_unwind nonnull writable sret(%class.QString) align 8 %2, i64 %.sink5.i.i, ptr %13)
  %15 = load ptr, ptr %2, align 8
  %16 = getelementptr inbounds i8, ptr %2, i64 16
  %17 = load i64, ptr %16, align 8
  call void @llvm.lifetime.end.p0(i64 24, ptr nonnull %2)
  %18 = icmp sgt i64 %17, 0
  %.not.i.i.i = icmp eq ptr %15, null
  br i1 %.not.i.i.i, label %_ZN7QStringD2Ev.exit, label %_ZN17QArrayDataPointerIDsE5derefEv.exit.i.i

_ZN17QArrayDataPointerIDsE5derefEv.exit.i.i:      ; preds = %_ZN7QStringC2EPKc.exit
  %19 = atomicrmw sub ptr %15, i32 1 seq_cst, align 4
  %.not.i.i7 = icmp eq i32 %19, 1
  br i1 %.not.i.i7, label %20, label %_ZN7QStringD2Ev.exit

20:                                               ; preds = %_ZN17QArrayDataPointerIDsE5derefEv.exit.i.i
  call void @_ZN10QArrayData10deallocateEPS_xx(ptr noundef nonnull %15, i64 noundef 2, i64 noundef 8) #15
  br label %_ZN7QStringD2Ev.exit

_ZN7QStringD2Ev.exit:                             ; preds = %20, %_ZN17QArrayDataPointerIDsE5derefEv.exit.i.i, %_ZN7QStringC2EPKc.exit, %10, %5, %1
  %.0 = phi i1 [ false, %5 ], [ false, %1 ], [ true, %10 ], [ %18, %_ZN7QStringC2EPKc.exit ], [ %18, %_ZN17QArrayDataPointerIDsE5derefEv.exit.i.i ], [ %18, %20 ]
  ret i1 %.0
}